; Function Attrs: mustprogress uwtable
define internal void @"_ZNSt17_Function_handlerIFvRKNSt7__cxx1112basic_stringIcSt11char_traitsIcESaIcEEESt17basic_string_viewIcS3_EEZN20cmFindPackageCommand17StoreVersionFoundEvE3$_0E9_M_invokeERKSt9_Any_dataS7_OS9_"(ptr nocapture noundef nonnull readonly align 8 dereferenceable(16) %0, ptr noundef nonnull align 8 dereferenceable(32) %1, ptr nocapture noundef nonnull readonly align 8 dereferenceable(16) %2) #3 align 2 {
  %.val = load ptr, ptr %0, align 8
  %.val3 = load i64, ptr %2, align 8
  %4 = getelementptr inbounds i8, ptr %2, i64 8
  %.val4 = load ptr, ptr %4, align 8
  %5 = getelementptr i8, ptr %.val, i64 368
  %.val.val = load ptr, ptr %5, align 8
  tail call void @_ZN10cmMakefile13AddDefinitionERKNSt7__cxx1112basic_stringIcSt11char_traitsIcESaIcEEESt17basic_string_viewIcS3_E(ptr noundef nonnull align 8 dereferenceable(3520) %.val.val, ptr noundef nonnull align 8 dereferenceable(32) %1, i64 %.val3, ptr %.val4)
  ret void
}